target datalayout = "e-m:e-p270:32:32-p271:32:32-p272:64:64-i64:64-i128:128-f80:128-n8:16:32:64-S128"
target triple = "x86_64-pc-linux-gnu"

%struct.dbd_usage_msg_t = type { i64, ptr, i64 }

@.str = private unnamed_addr constant [16 x i8] c"slurmdbd_pack.c\00", align 1
@.str.1 = private unnamed_addr constant [18 x i8] c"Unknown pack type\00", align 1
@__func__.slurmdbd_unpack_usage_msg = private unnamed_addr constant [26 x i8] c"slurmdbd_unpack_usage_msg\00", align 1

; Function Attrs: nounwind uwtable
define dso_local i32 @slurmdbd_unpack_usage_msg(ptr noundef %0, i16 noundef zeroext %1, i32 noundef %2, ptr noundef %3) #0 {
  %5 = alloca i32, align 4
  %6 = alloca ptr, align 8
  %7 = alloca i16, align 2
  %8 = alloca i32, align 4
  %9 = alloca ptr, align 8
  %10 = alloca ptr, align 8
  %11 = alloca ptr, align 8
  %12 = alloca i32, align 4
  store ptr %0, ptr %6, align 8
  store i16 %1, ptr %7, align 2
  store i32 %2, ptr %8, align 4
  store ptr %3, ptr %9, align 8
  call void @llvm.lifetime.start.p0(i64 8, ptr %10) #5
  store ptr null, ptr %10, align 8
  call void @llvm.lifetime.start.p0(i64 8, ptr %11) #5
  %13 = call ptr @slurm_xcalloc(i64 noundef 1, i64 noundef 24, i1 noundef zeroext true, i1 noundef zeroext false, ptr noundef @.str, i32 noundef 1440, ptr noundef @__func__.slurmdbd_unpack_usage_msg)
  store ptr %13, ptr %10, align 8
  %14 = load ptr, ptr %10, align 8
  %15 = load ptr, ptr %6, align 8
  store ptr %14, ptr %15, align 8
  %16 = load i32, ptr %8, align 4
  switch i32 %16, label %20 [
    i32 1505, label %17
    i32 1506, label %17
    i32 1411, label %17
    i32 1418, label %17
    i32 1413, label %18
    i32 1420, label %18
    i32 1457, label %19
    i32 1458, label %19
  ]

17:                                               ; preds = %4, %4, %4, %4
  store ptr @slurmdb_unpack_assoc_rec, ptr %11, align 8
  br label %21

18:                                               ; preds = %4, %4
  store ptr @slurmdb_unpack_cluster_rec, ptr %11, align 8
  br label %21

19:                                               ; preds = %4, %4
  store ptr @slurmdb_unpack_wckey_rec, ptr %11, align 8
  br label %21

20:                                               ; preds = %4
  call void (ptr, ...) @fatal(ptr noundef @.str.1) #7
  unreachable

21:                                               ; preds = %19, %18, %17
  %22 = load ptr, ptr %11, align 8
  %23 = load ptr, ptr %10, align 8
  %24 = getelementptr inbounds nuw %struct.dbd_usage_msg_t, ptr %23, i32 0, i32 1
  %25 = load i16, ptr %7, align 2
  %26 = load ptr, ptr %9, align 8
  %27 = call i32 %22(ptr noundef %24, i16 noundef zeroext %25, ptr noundef %26)
  %28 = icmp eq i32 %27, -1
  br i1 %28, label %29, label %30

29:                                               ; preds = %21
  br label %51

30:                                               ; preds = %21
  br label %31

31:                                               ; preds = %30
  %32 = load ptr, ptr %10, align 8
  %33 = getelementptr inbounds nuw %struct.dbd_usage_msg_t, ptr %32, i32 0, i32 2
  %34 = load ptr, ptr %9, align 8
  %35 = call i32 @unpack_time(ptr noundef %33, ptr noundef %34)
  %36 = icmp ne i32 %35, 0
  br i1 %36, label %37, label %38

37:                                               ; preds = %31
  br label %51

38:                                               ; preds = %31
  br label %39

39:                                               ; preds = %38
  br label %40

40:                                               ; preds = %39
  br label %41

41:                                               ; preds = %40
  %42 = load ptr, ptr %10, align 8
  %43 = getelementptr inbounds nuw %struct.dbd_usage_msg_t, ptr %42, i32 0, i32 0
  %44 = load ptr, ptr %9, align 8
  %45 = call i32 @unpack_time(ptr noundef %43, ptr noundef %44)
  %46 = icmp ne i32 %45, 0
  br i1 %46, label %47, label %48

47:                                               ; preds = %41
  br label %51

48:                                               ; preds = %41
  br label %49

49:                                               ; preds = %48
  br label %50

50:                                               ; preds = %49
  store i32 0, ptr %5, align 4
  store i32 1, ptr %12, align 4
  br label %55

51:                                               ; preds = %47, %37, %29
  %52 = load ptr, ptr %10, align 8
  %53 = load i32, ptr %8, align 4
  call void @slurmdbd_free_usage_msg(ptr noundef %52, i32 noundef %53)
  %54 = load ptr, ptr %6, align 8
  store ptr null, ptr %54, align 8
  store i32 -1, ptr %5, align 4
  store i32 1, ptr %12, align 4
  br label %55

55:                                               ; preds = %51, %50
  call void @llvm.lifetime.end.p0(i64 8, ptr %11) #5
  call void @llvm.lifetime.end.p0(i64 8, ptr %10) #5
  %56 = load i32, ptr %5, align 4
  ret i32 %56
}