; Function Attrs: nounwind uwtable
define dso_local range(i32 -1, 1) i32 @slurmdbd_unpack_usage_msg(ptr noundef writeonly captures(none) initializes((0, 8)) %0, i16 noundef zeroext %1, i32 noundef %2, ptr noundef %3) local_unnamed_addr #0 {
  %5 = tail call ptr @slurm_xcalloc(i64 noundef 1, i64 noundef 24, i1 noundef zeroext true, i1 noundef zeroext false, ptr noundef nonnull @.str, i32 noundef 1440, ptr noundef nonnull @__func__.slurmdbd_unpack_usage_msg) #5
  store ptr %5, ptr %0, align 8
  switch i32 %2, label %8 [
    i32 1505, label %9
    i32 1506, label %9
    i32 1411, label %9
    i32 1418, label %9
    i32 1413, label %6
    i32 1420, label %6
    i32 1457, label %7
    i32 1458, label %7
  ]

6:                                                ; preds = %4, %4
  br label %9

7:                                                ; preds = %4, %4
  br label %9

8:                                                ; preds = %4
  tail call void (ptr, ...) @fatal(ptr noundef nonnull @.str.1) #6
  unreachable

9:                                                ; preds = %4, %4, %4, %4, %7, %6
  %.0 = phi ptr [ @slurmdb_unpack_wckey_rec, %7 ], [ @slurmdb_unpack_cluster_rec, %6 ], [ @slurmdb_unpack_assoc_rec, %4 ], [ @slurmdb_unpack_assoc_rec, %4 ], [ @slurmdb_unpack_assoc_rec, %4 ], [ @slurmdb_unpack_assoc_rec, %4 ]
  %10 = getelementptr inbounds nuw i8, ptr %5, i64 8
  %11 = tail call i32 %.0(ptr noundef nonnull %10, i16 noundef zeroext %1, ptr noundef %3) #5, !callees !9
  %12 = icmp eq i32 %11, -1
  br i1 %12, label %18, label %13

13:                                               ; preds = %9
  %14 = getelementptr inbounds nuw i8, ptr %5, i64 16
  %15 = tail call i32 @unpack_time(ptr noundef nonnull %14, ptr noundef %3) #5
  %.not = icmp eq i32 %15, 0
  br i1 %.not, label %16, label %18

16:                                               ; preds = %13
  %17 = tail call i32 @unpack_time(ptr noundef nonnull %5, ptr noundef %3) #5
  %.not15 = icmp eq i32 %17, 0
  br i1 %.not15, label %19, label %18

18:                                               ; preds = %16, %13, %9
  tail call void @slurmdbd_free_usage_msg(ptr noundef nonnull %5, i32 noundef %2) #5
  store ptr null, ptr %0, align 8
  br label %19

19:                                               ; preds = %16, %18
  %.014 = phi i32 [ -1, %18 ], [ 0, %16 ]
  ret i32 %.014
}